target datalayout = "e-m:e-p270:32:32-p271:32:32-p272:64:64-i64:64-i128:128-f80:128-n8:16:32:64-S128"
target triple = "x86_64-pc-linux-gnu"

%struct.iop_head_s = type { ptr, ptr }
%struct.io_queue_s = type { ptr, %struct.iop_head_s, ptr, i32 }
%struct._obj_io = type { ptr, ptr, ptr, ptr, i32, i32, i32, i32, i16, i32, ptr }
%struct._io_pending_t = type { i8, i8, i8, ptr, ptr, ptr, ptr, ptr, %struct.anon.12, [120 x i8] }
%struct.anon.12 = type { ptr }

; Function Attrs: nounwind uwtable
define dso_local void @storage_submit_cb(ptr noundef %0) #0 {
  %2 = alloca ptr, align 8
  %3 = alloca ptr, align 8
  %4 = alloca ptr, align 8
  %5 = alloca ptr, align 8
  store ptr %0, ptr %2, align 8, !tbaa !73
  call void @llvm.lifetime.start.p0(i64 8, ptr %3) #13
  store ptr null, ptr %3, align 8, !tbaa !4
  br label %6

6:                                                ; preds = %39, %1
  %7 = load ptr, ptr %2, align 8, !tbaa !73
  %8 = getelementptr inbounds nuw %struct.io_queue_s, ptr %7, i32 0, i32 1
  %9 = getelementptr inbounds nuw %struct.iop_head_s, ptr %8, i32 0, i32 0
  %10 = load ptr, ptr %9, align 8, !tbaa !154
  %11 = icmp eq ptr %10, null
  %12 = xor i1 %11, true
  br i1 %12, label %13, label %51

13:                                               ; preds = %6
  call void @llvm.lifetime.start.p0(i64 8, ptr %4) #13
  %14 = load ptr, ptr %2, align 8, !tbaa !73
  %15 = getelementptr inbounds nuw %struct.io_queue_s, ptr %14, i32 0, i32 1
  %16 = getelementptr inbounds nuw %struct.iop_head_s, ptr %15, i32 0, i32 0
  %17 = load ptr, ptr %16, align 8, !tbaa !154
  store ptr %17, ptr %4, align 8, !tbaa !136
  br label %18

18:                                               ; preds = %13
  %19 = load ptr, ptr %2, align 8, !tbaa !73
  %20 = getelementptr inbounds nuw %struct.io_queue_s, ptr %19, i32 0, i32 1
  %21 = getelementptr inbounds nuw %struct.iop_head_s, ptr %20, i32 0, i32 0
  %22 = load ptr, ptr %21, align 8, !tbaa !154
  %23 = getelementptr inbounds nuw %struct._io_pending_t, ptr %22, i32 0, i32 8
  %24 = getelementptr inbounds nuw %struct.anon.12, ptr %23, i32 0, i32 0
  %25 = load ptr, ptr %24, align 8, !tbaa !131
  %26 = load ptr, ptr %2, align 8, !tbaa !73
  %27 = getelementptr inbounds nuw %struct.io_queue_s, ptr %26, i32 0, i32 1
  %28 = getelementptr inbounds nuw %struct.iop_head_s, ptr %27, i32 0, i32 0
  store ptr %25, ptr %28, align 8, !tbaa !154
  %29 = icmp eq ptr %25, null
  br i1 %29, label %30, label %37

30:                                               ; preds = %18
  %31 = load ptr, ptr %2, align 8, !tbaa !73
  %32 = getelementptr inbounds nuw %struct.io_queue_s, ptr %31, i32 0, i32 1
  %33 = getelementptr inbounds nuw %struct.iop_head_s, ptr %32, i32 0, i32 0
  %34 = load ptr, ptr %2, align 8, !tbaa !73
  %35 = getelementptr inbounds nuw %struct.io_queue_s, ptr %34, i32 0, i32 1
  %36 = getelementptr inbounds nuw %struct.iop_head_s, ptr %35, i32 0, i32 1
  store ptr %33, ptr %36, align 8, !tbaa !134
  br label %37

37:                                               ; preds = %30, %18
  br label %38

38:                                               ; preds = %37
  br label %39

39:                                               ; preds = %38
  call void @llvm.lifetime.start.p0(i64 8, ptr %5) #13
  %40 = load ptr, ptr %4, align 8, !tbaa !136
  %41 = load ptr, ptr %4, align 8, !tbaa !136
  %42 = getelementptr inbounds nuw %struct._io_pending_t, ptr %41, i32 0, i32 2
  %43 = load i8, ptr %42, align 2, !tbaa !155
  %44 = zext i8 %43 to i32
  %45 = sext i32 %44 to i64
  %46 = getelementptr inbounds i8, ptr %40, i64 %45
  store ptr %46, ptr %5, align 8, !tbaa !113
  %47 = load ptr, ptr %3, align 8, !tbaa !4
  %48 = load ptr, ptr %5, align 8, !tbaa !113
  %49 = getelementptr inbounds nuw %struct._obj_io, ptr %48, i32 0, i32 1
  store ptr %47, ptr %49, align 8, !tbaa !156
  %50 = load ptr, ptr %5, align 8, !tbaa !113
  store ptr %50, ptr %3, align 8, !tbaa !4
  call void @llvm.lifetime.end.p0(i64 8, ptr %5) #13
  call void @llvm.lifetime.end.p0(i64 8, ptr %4) #13
  br label %6, !llvm.loop !157

51:                                               ; preds = %6
  %52 = load ptr, ptr %2, align 8, !tbaa !73
  %53 = getelementptr inbounds nuw %struct.io_queue_s, ptr %52, i32 0, i32 0
  %54 = load ptr, ptr %53, align 8, !tbaa !158
  %55 = load ptr, ptr %3, align 8, !tbaa !4
  %56 = call i32 @extstore_submit(ptr noundef %54, ptr noundef %55)
  call void @llvm.lifetime.end.p0(i64 8, ptr %3) #13
  ret void
}